; Function Attrs: mustprogress uwtable
define hidden void @_ZNK4cvc58internal20FloatingPointLiteral3remERKS1_(ptr dead_on_unwind noalias writable sret(%"class.cvc5::internal::FloatingPointLiteral") align 8 %0, ptr noundef nonnull align 8 dereferenceable(64) %1, ptr noundef nonnull align 8 dereferenceable(64) %2) local_unnamed_addr #4 align 2 personality ptr @__gxx_personality_v0 {
  %4 = alloca i32, align 4
  %5 = alloca %"class.symfpu::unpackedFloat", align 8
  %6 = getelementptr inbounds nuw i8, ptr %1, i64 8
  %7 = getelementptr inbounds nuw i8, ptr %2, i64 8
  call void @llvm.lifetime.start.p0(i64 4, ptr nonnull %4) #16, !noalias !80
  %8 = tail call noundef i32 @_ZN4cvc58internal13symfpuLiteral6traits3RNEEv(), !noalias !80
  store i32 %8, ptr %4, align 4, !tbaa !34, !noalias !80
  call void @_ZN6symfpu21remainderWithRoundingIN4cvc58internal13symfpuLiteral6traitsEEENS_13unpackedFloatIT_EERKNS6_3fptERKNS6_2rmERKS7_SF_(ptr dead_on_unwind nonnull writable sret(%"class.symfpu::unpackedFloat") align 8 %5, ptr noundef nonnull align 4 dereferenceable(8) %1, ptr noundef nonnull align 4 dereferenceable(4) %4, ptr noundef nonnull align 8 dereferenceable(56) %6, ptr noundef nonnull align 8 dereferenceable(56) %7)
  call void @llvm.lifetime.end.p0(i64 4, ptr nonnull %4) #16, !noalias !80
  invoke void @_ZN4cvc58internal17FloatingPointSizeC1ERKS1_(ptr noundef nonnull align 8 dereferenceable(64) %0, ptr noundef nonnull align 4 dereferenceable(8) %1)
          to label %.noexc unwind label %41

.noexc:                                           ; preds = %3
  %9 = getelementptr inbounds nuw i8, ptr %0, i64 8
  %10 = load i8, ptr %5, align 8, !tbaa !15, !range !21, !noundef !22
  store i8 %10, ptr %9, align 8, !tbaa !15
  %11 = getelementptr inbounds nuw i8, ptr %0, i64 9
  %12 = getelementptr inbounds nuw i8, ptr %5, i64 1
  %13 = load i8, ptr %12, align 1, !tbaa !19, !range !21, !noundef !22
  store i8 %13, ptr %11, align 1, !tbaa !19
  %14 = getelementptr inbounds nuw i8, ptr %0, i64 10
  %15 = getelementptr inbounds nuw i8, ptr %5, i64 2
  %16 = load i8, ptr %15, align 2, !tbaa !20, !range !21, !noundef !22
  store i8 %16, ptr %14, align 2, !tbaa !20
  %17 = getelementptr inbounds nuw i8, ptr %0, i64 11
  %18 = getelementptr inbounds nuw i8, ptr %5, i64 3
  %19 = load i8, ptr %18, align 1, !tbaa !23, !range !21, !noundef !22
  store i8 %19, ptr %17, align 1, !tbaa !23
  %20 = getelementptr inbounds nuw i8, ptr %0, i64 16
  %21 = getelementptr inbounds nuw i8, ptr %5, i64 8
  %22 = load i32, ptr %21, align 8, !tbaa !9
  store i32 %22, ptr %20, align 8, !tbaa !9
  %23 = getelementptr inbounds nuw i8, ptr %0, i64 24
  %24 = getelementptr inbounds nuw i8, ptr %5, i64 16
  invoke void @__gmpz_init_set(ptr noundef nonnull align 8 dereferenceable(16) %23, ptr noundef nonnull align 8 dereferenceable(16) %24)
          to label %.noexc3 unwind label %41

.noexc3:                                          ; preds = %.noexc
  %25 = getelementptr inbounds nuw i8, ptr %0, i64 40
  %26 = getelementptr inbounds nuw i8, ptr %5, i64 32
  %27 = load i32, ptr %26, align 8, !tbaa !9
  store i32 %27, ptr %25, align 8, !tbaa !9
  %28 = getelementptr inbounds nuw i8, ptr %0, i64 48
  %29 = getelementptr inbounds nuw i8, ptr %5, i64 40
  invoke void @__gmpz_init_set(ptr noundef nonnull align 8 dereferenceable(16) %28, ptr noundef nonnull align 8 dereferenceable(16) %29)
          to label %_ZN4cvc58internal20FloatingPointLiteralC2ERKNS0_17FloatingPointSizeEN6symfpu13unpackedFloatINS0_13symfpuLiteral6traitsEEE.exit unwind label %30

30:                                               ; preds = %.noexc3
  %31 = landingpad { ptr, i32 }
          cleanup
  invoke void @__gmpz_clear(ptr noundef nonnull align 8 dereferenceable(16) %23)
          to label %.body unwind label %32

32:                                               ; preds = %30
  %33 = landingpad { ptr, i32 }
          catch ptr null
  %34 = extractvalue { ptr, i32 } %33, 0
  call void @__clang_call_terminate(ptr %34) #17
  unreachable

_ZN4cvc58internal20FloatingPointLiteralC2ERKNS0_17FloatingPointSizeEN6symfpu13unpackedFloatINS0_13symfpuLiteral6traitsEEE.exit: ; preds = %.noexc3
  invoke void @__gmpz_clear(ptr noundef nonnull align 8 dereferenceable(16) %29)
          to label %_ZN4cvc58internal9BitVectorD2Ev.exit.i unwind label %35

35:                                               ; preds = %_ZN4cvc58internal20FloatingPointLiteralC2ERKNS0_17FloatingPointSizeEN6symfpu13unpackedFloatINS0_13symfpuLiteral6traitsEEE.exit
  %36 = landingpad { ptr, i32 }
          catch ptr null
  %37 = extractvalue { ptr, i32 } %36, 0
  call void @__clang_call_terminate(ptr %37) #17
  unreachable

_ZN4cvc58internal9BitVectorD2Ev.exit.i:           ; preds = %_ZN4cvc58internal20FloatingPointLiteralC2ERKNS0_17FloatingPointSizeEN6symfpu13unpackedFloatINS0_13symfpuLiteral6traitsEEE.exit
  invoke void @__gmpz_clear(ptr noundef nonnull align 8 dereferenceable(16) %24)
          to label %_ZN6symfpu13unpackedFloatIN4cvc58internal13symfpuLiteral6traitsEED2Ev.exit unwind label %38

38:                                               ; preds = %_ZN4cvc58internal9BitVectorD2Ev.exit.i
  %39 = landingpad { ptr, i32 }
          catch ptr null
  %40 = extractvalue { ptr, i32 } %39, 0
  call void @__clang_call_terminate(ptr %40) #17
  unreachable

_ZN6symfpu13unpackedFloatIN4cvc58internal13symfpuLiteral6traitsEED2Ev.exit: ; preds = %_ZN4cvc58internal9BitVectorD2Ev.exit.i
  ret void

41:                                               ; preds = %.noexc, %3
  %42 = landingpad { ptr, i32 }
          cleanup
  br label %.body

.body:                                            ; preds = %30, %41
  %eh.lpad-body = phi { ptr, i32 } [ %42, %41 ], [ %31, %30 ]
  call void @_ZN6symfpu13unpackedFloatIN4cvc58internal13symfpuLiteral6traitsEED2Ev(ptr noundef nonnull align 8 dereferenceable(56) %5) #16
  resume { ptr, i32 } %eh.lpad-body
}